(V18121802
p0
cdatetime
datetime
p1
(S'\x07\xe2\x0c\x12\x00\x00\x00\x00\x00\x00'
p2
tp3
Rp4
(VDE
p5
VImaginary GmbH
p6
VHerr
p7
VBoss
p8
VMan
p9
V123 Fake Street
p10
VFakeville
p11
V
p12
g12
VDE
p13
V123456789
p14
tp15
((I6
tp16
(V2002-eng
p17
tp18
(F200.0
tp19
(VZeilen in EN(GB)
p20
tp21
(VAnother job #2
p22
tp23
(cdatetime
date
p24
(S'\x07\xe2\x0c\x11'
p25
tp26
Rp27
tp28
(F0.75
tp29
tp30
tp31
.